; Function Attrs: nounwind uwtable
define dso_local ptr @php_password_algo_find(ptr noundef %0) local_unnamed_addr #0 {
  %.not = icmp eq ptr %0, null
  br i1 %.not, label %9, label %2

2:                                                ; preds = %1
  %3 = tail call ptr @zend_hash_find(ptr noundef nonnull @php_password_algos, ptr noundef nonnull %0) #12
  %.not9 = icmp eq ptr %3, null
  br i1 %.not9, label %9, label %4

4:                                                ; preds = %2
  %5 = getelementptr inbounds i8, ptr %3, i64 8
  %6 = load i8, ptr %5, align 8
  %.not10 = icmp eq i8 %6, 13
  br i1 %.not10, label %7, label %9

7:                                                ; preds = %4
  %8 = load ptr, ptr %3, align 8
  br label %9

9:                                                ; preds = %2, %4, %1, %7
  %.0 = phi ptr [ %8, %7 ], [ null, %1 ], [ null, %4 ], [ null, %2 ]
  ret ptr %.0
}